target datalayout = "e-m:e-p270:32:32-p271:32:32-p272:64:64-i64:64-i128:128-f80:128-n8:16:32:64-S128"
target triple = "x86_64-pc-linux-gnu"

%"class.nanobind::handle" = type { ptr }
%class.anon.1110 = type { i8 }
%"struct.nanobind::detail::tuple.1112" = type { %"struct.nanobind::detail::type_caster.1113" }
%"struct.nanobind::detail::type_caster.1113" = type { %"struct.nanobind::detail::list_caster.1114" }
%"struct.nanobind::detail::list_caster.1114" = type { %"class.std::vector.1115" }
%"class.std::vector.1115" = type { %"struct.std::_Vector_base.1116" }
%"struct.std::_Vector_base.1116" = type { %"struct.std::_Vector_base<std::optional<std::__cxx11::basic_string<char>>, std::allocator<std::optional<std::__cxx11::basic_string<char>>>>::_Vector_impl" }
%"struct.std::_Vector_base<std::optional<std::__cxx11::basic_string<char>>, std::allocator<std::optional<std::__cxx11::basic_string<char>>>>::_Vector_impl" = type { %"struct.std::_Vector_base<std::optional<std::__cxx11::basic_string<char>>, std::allocator<std::optional<std::__cxx11::basic_string<char>>>>::_Vector_impl_data" }
%"struct.std::_Vector_base<std::optional<std::__cxx11::basic_string<char>>, std::allocator<std::optional<std::__cxx11::basic_string<char>>>>::_Vector_impl_data" = type { ptr, ptr, ptr }

; Function Attrs: mustprogress nounwind optsize uwtable
define linkonce_odr void @_ZNSt15__new_allocatorISt8optionalINSt7__cxx1112basic_stringIcSt11char_traitsIcESaIcEEEEEC2Ev(ptr noundef nonnull align 1 dereferenceable(1) %0) unnamed_addr #2 comdat align 2 {
  %2 = alloca ptr, align 8
  store ptr %0, ptr %2, align 8, !tbaa !2028
  ret void
}

; Function Attrs: mustprogress nounwind optsize uwtable
define linkonce_odr void @_ZNSt12_Vector_baseISt8optionalINSt7__cxx1112basic_stringIcSt11char_traitsIcESaIcEEEESaIS7_EE17_Vector_impl_dataC2Ev(ptr noundef nonnull align 8 dereferenceable(24) %0) unnamed_addr #2 comdat align 2 {
  %2 = alloca ptr, align 8
  store ptr %0, ptr %2, align 8, !tbaa !2025
  %3 = load ptr, ptr %2, align 8
  %4 = getelementptr inbounds nuw %"struct.std::_Vector_base<std::optional<std::__cxx11::basic_string<char>>, std::allocator<std::optional<std::__cxx11::basic_string<char>>>>::_Vector_impl_data", ptr %3, i32 0, i32 0
  store ptr null, ptr %4, align 8, !tbaa !2014
  %5 = getelementptr inbounds nuw %"struct.std::_Vector_base<std::optional<std::__cxx11::basic_string<char>>, std::allocator<std::optional<std::__cxx11::basic_string<char>>>>::_Vector_impl_data", ptr %3, i32 0, i32 1
  store ptr null, ptr %5, align 8, !tbaa !2016
  %6 = getelementptr inbounds nuw %"struct.std::_Vector_base<std::optional<std::__cxx11::basic_string<char>>, std::allocator<std::optional<std::__cxx11::basic_string<char>>>>::_Vector_impl_data", ptr %3, i32 0, i32 2
  store ptr null, ptr %6, align 8, !tbaa !2027
  ret void
}

; Function Attrs: mustprogress nounwind optsize uwtable
define linkonce_odr void @_ZNSaISt8optionalINSt7__cxx1112basic_stringIcSt11char_traitsIcESaIcEEEEEC2Ev(ptr noundef nonnull align 1 dereferenceable(1) %0) unnamed_addr #2 comdat align 2 {
  %2 = alloca ptr, align 8
  store ptr %0, ptr %2, align 8, !tbaa !2023
  %3 = load ptr, ptr %2, align 8
  call void @_ZNSt15__new_allocatorISt8optionalINSt7__cxx1112basic_stringIcSt11char_traitsIcESaIcEEEEEC2Ev(ptr noundef nonnull align 1 dereferenceable(1) %3) #23
  ret void
}

; Function Attrs: mustprogress nounwind optsize uwtable
define linkonce_odr void @_ZNSt12_Vector_baseISt8optionalINSt7__cxx1112basic_stringIcSt11char_traitsIcESaIcEEEESaIS7_EE12_Vector_implC2Ev(ptr noundef nonnull align 8 dereferenceable(24) %0) unnamed_addr #2 comdat align 2 {
  %2 = alloca ptr, align 8
  store ptr %0, ptr %2, align 8, !tbaa !2021
  %3 = load ptr, ptr %2, align 8
  call void @_ZNSaISt8optionalINSt7__cxx1112basic_stringIcSt11char_traitsIcESaIcEEEEEC2Ev(ptr noundef nonnull align 1 dereferenceable(1) %3) #23
  call void @_ZNSt12_Vector_baseISt8optionalINSt7__cxx1112basic_stringIcSt11char_traitsIcESaIcEEEESaIS7_EE17_Vector_impl_dataC2Ev(ptr noundef nonnull align 8 dereferenceable(24) %3) #23
  ret void
}

; Function Attrs: mustprogress nounwind optsize uwtable
define linkonce_odr void @_ZNSt12_Vector_baseISt8optionalINSt7__cxx1112basic_stringIcSt11char_traitsIcESaIcEEEESaIS7_EEC2Ev(ptr noundef nonnull align 8 dereferenceable(24) %0) unnamed_addr #2 comdat align 2 {
  %2 = alloca ptr, align 8
  store ptr %0, ptr %2, align 8, !tbaa !2019
  %3 = load ptr, ptr %2, align 8
  %4 = getelementptr inbounds nuw %"struct.std::_Vector_base.1116", ptr %3, i32 0, i32 0
  call void @_ZNSt12_Vector_baseISt8optionalINSt7__cxx1112basic_stringIcSt11char_traitsIcESaIcEEEESaIS7_EE12_Vector_implC2Ev(ptr noundef nonnull align 8 dereferenceable(24) %4) #23
  ret void
}

; Function Attrs: mustprogress nounwind optsize uwtable
define linkonce_odr void @_ZNSt6vectorISt8optionalINSt7__cxx1112basic_stringIcSt11char_traitsIcESaIcEEEESaIS7_EEC2Ev(ptr noundef nonnull align 8 dereferenceable(24) %0) unnamed_addr #2 comdat align 2 {
  %2 = alloca ptr, align 8
  store ptr %0, ptr %2, align 8, !tbaa !2010
  %3 = load ptr, ptr %2, align 8
  call void @_ZNSt12_Vector_baseISt8optionalINSt7__cxx1112basic_stringIcSt11char_traitsIcESaIcEEEESaIS7_EEC2Ev(ptr noundef nonnull align 8 dereferenceable(24) %3) #23
  ret void
}

; Function Attrs: inlinehint mustprogress nounwind optsize uwtable
define linkonce_odr hidden void @_ZN8nanobind6detail11list_casterISt6vectorISt8optionalINSt7__cxx1112basic_stringIcSt11char_traitsIcESaIcEEEESaISA_EESA_EC2Ev(ptr noundef nonnull align 8 dereferenceable(24) %0) unnamed_addr #11 comdat align 2 {
  %2 = alloca ptr, align 8
  store ptr %0, ptr %2, align 8, !tbaa !2007
  %3 = load ptr, ptr %2, align 8
  %4 = getelementptr inbounds nuw %"struct.nanobind::detail::list_caster.1114", ptr %3, i32 0, i32 0
  call void @_ZNSt6vectorISt8optionalINSt7__cxx1112basic_stringIcSt11char_traitsIcESaIcEEEESaIS7_EEC2Ev(ptr noundef nonnull align 8 dereferenceable(24) %4) #23
  ret void
}

; Function Attrs: inlinehint mustprogress nounwind optsize uwtable
define linkonce_odr hidden void @_ZN8nanobind6detail11list_casterISt6vectorISt8optionalINSt7__cxx1112basic_stringIcSt11char_traitsIcESaIcEEEESaISA_EESA_ED2Ev(ptr noundef nonnull align 8 dereferenceable(24) %0) unnamed_addr #11 comdat align 2 {
  %2 = alloca ptr, align 8
  store ptr %0, ptr %2, align 8, !tbaa !2007
  %3 = load ptr, ptr %2, align 8
  %4 = getelementptr inbounds nuw %"struct.nanobind::detail::list_caster.1114", ptr %3, i32 0, i32 0
  call void @_ZNSt6vectorISt8optionalINSt7__cxx1112basic_stringIcSt11char_traitsIcESaIcEEEESaIS7_EED2Ev(ptr noundef nonnull align 8 dereferenceable(24) %4) #23
  ret void
}

; Function Attrs: inlinehint mustprogress nounwind optsize uwtable
define linkonce_odr hidden void @_ZN8nanobind6detail11type_casterISt6vectorISt8optionalINSt7__cxx1112basic_stringIcSt11char_traitsIcESaIcEEEESaISA_EEiEC2Ev(ptr noundef nonnull align 8 dereferenceable(24) %0) unnamed_addr #11 comdat align 2 {
  %2 = alloca ptr, align 8
  store ptr %0, ptr %2, align 8, !tbaa !2017
  %3 = load ptr, ptr %2, align 8
  call void @_ZN8nanobind6detail11list_casterISt6vectorISt8optionalINSt7__cxx1112basic_stringIcSt11char_traitsIcESaIcEEEESaISA_EESA_EC2Ev(ptr noundef nonnull align 8 dereferenceable(24) %3) #23
  ret void
}

; Function Attrs: inlinehint mustprogress nounwind optsize uwtable
define linkonce_odr hidden void @_ZN8nanobind6detail5tupleIJNS0_11type_casterISt6vectorISt8optionalINSt7__cxx1112basic_stringIcSt11char_traitsIcESaIcEEEESaISB_EEiEEEED2Ev(ptr noundef nonnull align 8 dereferenceable(24) %0) unnamed_addr #11 comdat align 2 {
  %2 = alloca ptr, align 8
  store ptr %0, ptr %2, align 8, !tbaa !2005
  %3 = load ptr, ptr %2, align 8
  %4 = getelementptr inbounds nuw %"struct.nanobind::detail::tuple.1112", ptr %3, i32 0, i32 0
  call void @_ZN8nanobind6detail11list_casterISt6vectorISt8optionalINSt7__cxx1112basic_stringIcSt11char_traitsIcESaIcEEEESaISA_EESA_ED2Ev(ptr noundef nonnull align 8 dereferenceable(24) %4) #23
  ret void
}

; Function Attrs: alwaysinline mustprogress nounwind optsize uwtable
define linkonce_odr hidden noundef ptr @_ZNK8nanobind6handle3ptrEv(ptr noundef nonnull align 8 dereferenceable(8) %0) #3 comdat align 2 {
  %2 = alloca ptr, align 8
  store ptr %0, ptr %2, align 8, !tbaa !17
  %3 = load ptr, ptr %2, align 8
  %4 = getelementptr inbounds nuw %"class.nanobind::handle", ptr %3, i32 0, i32 0
  %5 = load ptr, ptr %4, align 8, !tbaa !19
  ret ptr %5
}

; Function Attrs: inlinehint mustprogress optsize uwtable
define internal void @"_ZZL26nanobind_init_test_stl_extRN8nanobind7module_EENK4$_84clERKSt6vectorISt8optionalINSt7__cxx1112basic_stringIcSt11char_traitsIcESaIcEEEESaISB_EE"(ptr dead_on_unwind noalias writable sret(%"class.std::vector.1115") align 8 %0, ptr noundef nonnull align 1 dereferenceable(1) %1, ptr noundef nonnull align 8 dereferenceable(24) %2) #10 align 2 {
  %4 = alloca ptr, align 8
  %5 = alloca ptr, align 8
  %6 = alloca ptr, align 8
  store ptr %0, ptr %4, align 8
  store ptr %1, ptr %5, align 8, !tbaa !8
  store ptr %2, ptr %6, align 8, !tbaa !2010
  %7 = load ptr, ptr %6, align 8, !tbaa !2010
  call void @_ZNSt6vectorISt8optionalINSt7__cxx1112basic_stringIcSt11char_traitsIcESaIcEEEESaIS7_EEC2ERKS9_(ptr noundef nonnull align 8 dereferenceable(24) %0, ptr noundef nonnull align 8 dereferenceable(24) %7) #22
  ret void
}

; Function Attrs: mustprogress nounwind optsize uwtable
define linkonce_odr hidden noundef nonnull align 8 dereferenceable(24) ptr @_ZN8nanobind6detail11list_casterISt6vectorISt8optionalINSt7__cxx1112basic_stringIcSt11char_traitsIcESaIcEEEESaISA_EESA_EcvRSC_Ev(ptr noundef nonnull align 8 dereferenceable(24) %0) #2 comdat align 2 {
  %2 = alloca ptr, align 8
  store ptr %0, ptr %2, align 8, !tbaa !2007
  %3 = load ptr, ptr %2, align 8
  %4 = getelementptr inbounds nuw %"struct.nanobind::detail::list_caster.1114", ptr %3, i32 0, i32 0
  ret ptr %4
}

; Function Attrs: alwaysinline mustprogress nounwind optsize uwtable
define linkonce_odr hidden void @_ZN8nanobind6handleC2EPK7_object(ptr noundef nonnull align 8 dereferenceable(8) %0, ptr noundef %1) unnamed_addr #3 comdat align 2 {
  %3 = alloca ptr, align 8
  %4 = alloca ptr, align 8
  store ptr %0, ptr %3, align 8, !tbaa !17
  store ptr %1, ptr %4, align 8, !tbaa !3
  %5 = load ptr, ptr %3, align 8
  %6 = getelementptr inbounds nuw %"class.nanobind::handle", ptr %5, i32 0, i32 0
  %7 = load ptr, ptr %4, align 8, !tbaa !3
  store ptr %7, ptr %6, align 8, !tbaa !19
  ret void
}

; Function Attrs: alwaysinline mustprogress nounwind optsize uwtable
define linkonce_odr hidden noundef nonnull align 8 dereferenceable(24) ptr @_ZN8nanobind6detail5tupleIJNS0_11type_casterISt6vectorISt8optionalINSt7__cxx1112basic_stringIcSt11char_traitsIcESaIcEEEESaISB_EEiEEEE3getILm0EEERDav(ptr noundef nonnull align 8 dereferenceable(24) %0) #3 comdat align 2 {
  %2 = alloca ptr, align 8
  store ptr %0, ptr %2, align 8, !tbaa !2005
  %3 = load ptr, ptr %2, align 8
  %4 = getelementptr inbounds nuw %"struct.nanobind::detail::tuple.1112", ptr %3, i32 0, i32 0
  ret ptr %4
}

; Function Attrs: mustprogress nounwind optsize uwtable
define linkonce_odr hidden void @_ZN8nanobind6detail5tupleIJNS0_11type_casterISt6vectorISt8optionalINSt7__cxx1112basic_stringIcSt11char_traitsIcESaIcEEEESaISB_EEiEEEEC2Ev(ptr noundef nonnull align 8 dereferenceable(24) %0) unnamed_addr #2 comdat align 2 {
  %2 = alloca ptr, align 8
  store ptr %0, ptr %2, align 8, !tbaa !2005
  %3 = load ptr, ptr %2, align 8
  %4 = getelementptr inbounds nuw %"struct.nanobind::detail::tuple.1112", ptr %3, i32 0, i32 0
  call void @_ZN8nanobind6detail11type_casterISt6vectorISt8optionalINSt7__cxx1112basic_stringIcSt11char_traitsIcESaIcEEEESaISA_EEiEC2Ev(ptr noundef nonnull align 8 dereferenceable(24) %4) #23
  ret void
}

; Function Attrs: alwaysinline mustprogress optsize uwtable
define internal noundef ptr @"_ZZN8nanobind6detail11func_createILb0ELb1EZL26nanobind_init_test_stl_extRNS_7module_EE4$_84St6vectorISt8optionalINSt7__cxx1112basic_stringIcSt11char_traitsIcESaIcEEEESaISD_EEJRKSF_EJLm0EEJNS_5scopeENS_4nameEEEEP7_objectOT1_PFT2_DpT3_ESt16integer_sequenceImJXspT4_EEEDpRKT5_ENKUlPvPSL_PhNS_9rv_policyEPNS0_12cleanup_listEE_clESZ_S10_S11_S12_S14_"(ptr noundef nonnull align 1 dereferenceable(1) %0, ptr noundef %1, ptr noundef %2, ptr noundef %3, i32 noundef %4, ptr noundef %5) #7 align 2 personality ptr @__gxx_personality_v0 {
  %7 = alloca ptr, align 8
  %8 = alloca ptr, align 8
  %9 = alloca ptr, align 8
  %10 = alloca ptr, align 8
  %11 = alloca ptr, align 8
  %12 = alloca i32, align 4
  %13 = alloca ptr, align 8
  %14 = alloca ptr, align 8
  %15 = alloca %"struct.nanobind::detail::tuple.1112", align 8
  %16 = alloca ptr, align 8
  %17 = alloca i32, align 4
  %18 = alloca %"class.nanobind::handle", align 8
  %19 = alloca i32, align 4
  %20 = alloca ptr, align 8
  %21 = alloca %"class.nanobind::handle", align 8
  %22 = alloca %"class.std::vector.1115", align 8
  store ptr %0, ptr %8, align 8, !tbaa !8
  store ptr %1, ptr %9, align 8, !tbaa !8
  store ptr %2, ptr %10, align 8, !tbaa !165
  store ptr %3, ptr %11, align 8, !tbaa !34
  store i32 %4, ptr %12, align 4, !tbaa !23
  store ptr %5, ptr %13, align 8, !tbaa !167
  call void @llvm.lifetime.start.p0(i64 8, ptr %14) #21
  %23 = load ptr, ptr %9, align 8, !tbaa !8
  store ptr %23, ptr %14, align 8, !tbaa !2001
  call void @llvm.lifetime.start.p0(i64 24, ptr %15) #21
  call void @_ZN8nanobind6detail5tupleIJNS0_11type_casterISt6vectorISt8optionalINSt7__cxx1112basic_stringIcSt11char_traitsIcESaIcEEEESaISB_EEiEEEEC2Ev(ptr noundef nonnull align 8 dereferenceable(24) %15) #23
  %24 = invoke noundef nonnull align 8 dereferenceable(24) ptr @_ZN8nanobind6detail5tupleIJNS0_11type_casterISt6vectorISt8optionalINSt7__cxx1112basic_stringIcSt11char_traitsIcESaIcEEEESaISB_EEiEEEE3getILm0EEERDav(ptr noundef nonnull align 8 dereferenceable(24) %15) #22
          to label %25 unwind label %38

25:                                               ; preds = %6
  %26 = load ptr, ptr %10, align 8, !tbaa !165
  %27 = getelementptr inbounds nuw ptr, ptr %26, i64 0
  %28 = load ptr, ptr %27, align 8, !tbaa !3
  invoke void @_ZN8nanobind6handleC2EPK7_object(ptr noundef nonnull align 8 dereferenceable(8) %18, ptr noundef %28) #22
          to label %29 unwind label %38

29:                                               ; preds = %25
  %30 = load ptr, ptr %11, align 8, !tbaa !34
  %31 = getelementptr inbounds nuw i8, ptr %30, i64 0
  %32 = load i8, ptr %31, align 1, !tbaa !57
  %33 = load ptr, ptr %13, align 8, !tbaa !167
  %34 = getelementptr inbounds nuw %"class.nanobind::handle", ptr %18, i32 0, i32 0
  %35 = load ptr, ptr %34, align 8
  %36 = call noundef zeroext i1 @_ZN8nanobind6detail11list_casterISt6vectorISt8optionalINSt7__cxx1112basic_stringIcSt11char_traitsIcESaIcEEEESaISA_EESA_E11from_pythonENS_6handleEhPNS0_12cleanup_listE(ptr noundef nonnull align 8 dereferenceable(24) %24, ptr %35, i8 noundef zeroext %32, ptr noundef %33) #23
  br i1 %36, label %42, label %37

37:                                               ; preds = %29
  store ptr inttoptr (i64 1 to ptr), ptr %7, align 8
  store i32 1, ptr %19, align 4
  br label %65

38:                                               ; preds = %25, %6
  %39 = landingpad { ptr, i32 }
          cleanup
  %40 = extractvalue { ptr, i32 } %39, 0
  store ptr %40, ptr %16, align 8
  %41 = extractvalue { ptr, i32 } %39, 1
  store i32 %41, ptr %17, align 4
  br label %67

42:                                               ; preds = %29
  call void @llvm.lifetime.start.p0(i64 8, ptr %20) #21
  call void @llvm.lifetime.start.p0(i64 8, ptr %21) #21
  call void @llvm.lifetime.start.p0(i64 24, ptr %22) #21
  %43 = load ptr, ptr %14, align 8, !tbaa !2001
  %44 = invoke noundef nonnull align 8 dereferenceable(24) ptr @_ZN8nanobind6detail5tupleIJNS0_11type_casterISt6vectorISt8optionalINSt7__cxx1112basic_stringIcSt11char_traitsIcESaIcEEEESaISB_EEiEEEE3getILm0EEERDav(ptr noundef nonnull align 8 dereferenceable(24) %15) #22
          to label %45 unwind label %56

45:                                               ; preds = %42
  %46 = invoke noundef nonnull align 8 dereferenceable(24) ptr @_ZN8nanobind6detail11list_casterISt6vectorISt8optionalINSt7__cxx1112basic_stringIcSt11char_traitsIcESaIcEEEESaISA_EESA_EcvRSC_Ev(ptr noundef nonnull align 8 dereferenceable(24) %44) #22
          to label %47 unwind label %56

47:                                               ; preds = %45
  invoke void @"_ZZL26nanobind_init_test_stl_extRN8nanobind7module_EENK4$_84clERKSt6vectorISt8optionalINSt7__cxx1112basic_stringIcSt11char_traitsIcESaIcEEEESaISB_EE"(ptr dead_on_unwind writable sret(%"class.std::vector.1115") align 8 %22, ptr noundef nonnull align 1 dereferenceable(1) %43, ptr noundef nonnull align 8 dereferenceable(24) %46) #22
          to label %48 unwind label %56

48:                                               ; preds = %47
  %49 = load i32, ptr %12, align 4, !tbaa !23
  %50 = load ptr, ptr %13, align 8, !tbaa !167
  %51 = invoke ptr @_ZN8nanobind6detail11list_casterISt6vectorISt8optionalINSt7__cxx1112basic_stringIcSt11char_traitsIcESaIcEEEESaISA_EESA_E8from_cppISC_EENS_6handleEOT_NS_9rv_policyEPNS0_12cleanup_listE(ptr noundef nonnull align 8 dereferenceable(24) %22, i32 noundef %49, ptr noundef %50) #22
          to label %52 unwind label %60

52:                                               ; preds = %48
  %53 = getelementptr inbounds nuw %"class.nanobind::handle", ptr %21, i32 0, i32 0
  store ptr %51, ptr %53, align 8
  %54 = call noundef ptr @_ZNK8nanobind6handle3ptrEv(ptr noundef nonnull align 8 dereferenceable(8) %21) #22
  store ptr %54, ptr %20, align 8, !tbaa !3
  call void @_ZNSt6vectorISt8optionalINSt7__cxx1112basic_stringIcSt11char_traitsIcESaIcEEEESaIS7_EED2Ev(ptr noundef nonnull align 8 dereferenceable(24) %22) #23
  call void @llvm.lifetime.end.p0(i64 24, ptr %22) #21
  call void @llvm.lifetime.end.p0(i64 8, ptr %21) #21
  %55 = load ptr, ptr %20, align 8, !tbaa !3
  store ptr %55, ptr %7, align 8
  store i32 1, ptr %19, align 4
  call void @llvm.lifetime.end.p0(i64 8, ptr %20) #21
  br label %65

56:                                               ; preds = %47, %45, %42
  %57 = landingpad { ptr, i32 }
          cleanup
  %58 = extractvalue { ptr, i32 } %57, 0
  store ptr %58, ptr %16, align 8
  %59 = extractvalue { ptr, i32 } %57, 1
  store i32 %59, ptr %17, align 4
  br label %64

60:                                               ; preds = %48
  %61 = landingpad { ptr, i32 }
          cleanup
  %62 = extractvalue { ptr, i32 } %61, 0
  store ptr %62, ptr %16, align 8
  %63 = extractvalue { ptr, i32 } %61, 1
  store i32 %63, ptr %17, align 4
  call void @_ZNSt6vectorISt8optionalINSt7__cxx1112basic_stringIcSt11char_traitsIcESaIcEEEESaIS7_EED2Ev(ptr noundef nonnull align 8 dereferenceable(24) %22) #23
  br label %64

64:                                               ; preds = %60, %56
  call void @llvm.lifetime.end.p0(i64 24, ptr %22) #21
  call void @llvm.lifetime.end.p0(i64 8, ptr %21) #21
  call void @llvm.lifetime.end.p0(i64 8, ptr %20) #21
  br label %67

65:                                               ; preds = %52, %37
  call void @_ZN8nanobind6detail5tupleIJNS0_11type_casterISt6vectorISt8optionalINSt7__cxx1112basic_stringIcSt11char_traitsIcESaIcEEEESaISB_EEiEEEED2Ev(ptr noundef nonnull align 8 dereferenceable(24) %15) #23
  call void @llvm.lifetime.end.p0(i64 24, ptr %15) #21
  call void @llvm.lifetime.end.p0(i64 8, ptr %14) #21
  %66 = load ptr, ptr %7, align 8
  ret ptr %66

67:                                               ; preds = %64, %38
  call void @_ZN8nanobind6detail5tupleIJNS0_11type_casterISt6vectorISt8optionalINSt7__cxx1112basic_stringIcSt11char_traitsIcESaIcEEEESaISB_EEiEEEED2Ev(ptr noundef nonnull align 8 dereferenceable(24) %15) #23
  call void @llvm.lifetime.end.p0(i64 24, ptr %15) #21
  call void @llvm.lifetime.end.p0(i64 8, ptr %14) #21
  br label %68

68:                                               ; preds = %67
  %69 = load ptr, ptr %16, align 8
  %70 = load i32, ptr %17, align 4
  %71 = insertvalue { ptr, i32 } poison, ptr %69, 0
  %72 = insertvalue { ptr, i32 } %71, i32 %70, 1
  resume { ptr, i32 } %72
}

; Function Attrs: inlinehint mustprogress optsize uwtable
define internal noundef ptr @"_ZZN8nanobind6detail11func_createILb0ELb1EZL26nanobind_init_test_stl_extRNS_7module_EE4$_84St6vectorISt8optionalINSt7__cxx1112basic_stringIcSt11char_traitsIcESaIcEEEESaISD_EEJRKSF_EJLm0EEJNS_5scopeENS_4nameEEEEP7_objectOT1_PFT2_DpT3_ESt16integer_sequenceImJXspT4_EEEDpRKT5_ENUlPvPSL_PhNS_9rv_policyEPNS0_12cleanup_listEE_8__invokeESZ_S10_S11_S12_S14_"(ptr noundef %0, ptr noundef %1, ptr noundef %2, i32 noundef %3, ptr noundef %4) #10 align 2 {
  %6 = alloca ptr, align 8
  %7 = alloca ptr, align 8
  %8 = alloca ptr, align 8
  %9 = alloca i32, align 4
  %10 = alloca ptr, align 8
  %11 = alloca %class.anon.1110, align 1
  store ptr %0, ptr %6, align 8, !tbaa !8
  store ptr %1, ptr %7, align 8, !tbaa !165
  store ptr %2, ptr %8, align 8, !tbaa !34
  store i32 %3, ptr %9, align 4, !tbaa !23
  store ptr %4, ptr %10, align 8, !tbaa !167
  %12 = load ptr, ptr %6, align 8, !tbaa !8
  %13 = load ptr, ptr %7, align 8, !tbaa !165
  %14 = load ptr, ptr %8, align 8, !tbaa !34
  %15 = load i32, ptr %9, align 4, !tbaa !23
  %16 = load ptr, ptr %10, align 8, !tbaa !167
  %17 = call noundef ptr @"_ZZN8nanobind6detail11func_createILb0ELb1EZL26nanobind_init_test_stl_extRNS_7module_EE4$_84St6vectorISt8optionalINSt7__cxx1112basic_stringIcSt11char_traitsIcESaIcEEEESaISD_EEJRKSF_EJLm0EEJNS_5scopeENS_4nameEEEEP7_objectOT1_PFT2_DpT3_ESt16integer_sequenceImJXspT4_EEEDpRKT5_ENKUlPvPSL_PhNS_9rv_policyEPNS0_12cleanup_listEE_clESZ_S10_S11_S12_S14_"(ptr noundef nonnull align 1 dereferenceable(1) %11, ptr noundef %12, ptr noundef %13, ptr noundef %14, i32 noundef %15, ptr noundef %16) #22
  ret ptr %17
}