; Function Attrs: inlinehint mustprogress optsize uwtable
define internal noundef ptr @"_ZZN8nanobind6detail11func_createILb0ELb1EZL26nanobind_init_test_stl_extRNS_7module_EE4$_84St6vectorISt8optionalINSt7__cxx1112basic_stringIcSt11char_traitsIcESaIcEEEESaISD_EEJRKSF_EJLm0EEJNS_5scopeENS_4nameEEEEP7_objectOT1_PFT2_DpT3_ESt16integer_sequenceImJXspT4_EEEDpRKT5_ENUlPvPSL_PhNS_9rv_policyEPNS0_12cleanup_listEE_8__invokeESZ_S10_S11_S12_S14_"(ptr readnone captures(none) %0, ptr noundef readonly captures(none) %1, ptr noundef readonly captures(none) %2, i32 noundef %3, ptr noundef %4) #11 align 2 personality ptr @__gxx_personality_v0 {
  %6 = alloca %"struct.nanobind::detail::tuple.1112", align 8
  %7 = alloca %"class.std::vector.1115", align 8
  call void @llvm.lifetime.start.p0(i64 24, ptr nonnull %6) #28
  call void @llvm.memset.p0.i64(ptr noundef nonnull align 8 dereferenceable(24) %6, i8 0, i64 24, i1 false)
  %8 = load ptr, ptr %1, align 8, !tbaa !131
  %9 = load i8, ptr %2, align 1, !tbaa !44
  %10 = call noundef zeroext i1 @_ZN8nanobind6detail11list_casterISt6vectorISt8optionalINSt7__cxx1112basic_stringIcSt11char_traitsIcESaIcEEEESaISA_EESA_E11from_pythonENS_6handleEhPNS0_12cleanup_listE(ptr noundef nonnull align 8 dereferenceable(24) %6, ptr %8, i8 noundef zeroext %9, ptr noundef %4) #27
  br i1 %10, label %11, label %"_ZZN8nanobind6detail11func_createILb0ELb1EZL26nanobind_init_test_stl_extRNS_7module_EE4$_84St6vectorISt8optionalINSt7__cxx1112basic_stringIcSt11char_traitsIcESaIcEEEESaISD_EEJRKSF_EJLm0EEJNS_5scopeENS_4nameEEEEP7_objectOT1_PFT2_DpT3_ESt16integer_sequenceImJXspT4_EEEDpRKT5_ENKUlPvPSL_PhNS_9rv_policyEPNS0_12cleanup_listEE_clESZ_S10_S11_S12_S14_.exit"

11:                                               ; preds = %5
  call void @llvm.lifetime.start.p0(i64 24, ptr nonnull %7) #28
  invoke void @_ZNSt6vectorISt8optionalINSt7__cxx1112basic_stringIcSt11char_traitsIcESaIcEEEESaIS7_EEC2ERKS9_(ptr noundef nonnull align 8 dereferenceable(24) %7, ptr noundef nonnull align 8 dereferenceable(24) %6) #30
          to label %"_ZZL26nanobind_init_test_stl_extRN8nanobind7module_EENK4$_84clERKSt6vectorISt8optionalINSt7__cxx1112basic_stringIcSt11char_traitsIcESaIcEEEESaISB_EE.exit" unwind label %14

"_ZZL26nanobind_init_test_stl_extRN8nanobind7module_EENK4$_84clERKSt6vectorISt8optionalINSt7__cxx1112basic_stringIcSt11char_traitsIcESaIcEEEESaISB_EE.exit": ; preds = %11
  %12 = invoke ptr @_ZN8nanobind6detail11list_casterISt6vectorISt8optionalINSt7__cxx1112basic_stringIcSt11char_traitsIcESaIcEEEESaISA_EESA_E8from_cppISC_EENS_6handleEOT_NS_9rv_policyEPNS0_12cleanup_listE(ptr noundef nonnull align 8 dereferenceable(24) %7, i32 noundef %3, ptr noundef %4) #30
          to label %13 unwind label %16

13:                                               ; preds = %"_ZZL26nanobind_init_test_stl_extRN8nanobind7module_EENK4$_84clERKSt6vectorISt8optionalINSt7__cxx1112basic_stringIcSt11char_traitsIcESaIcEEEESaISB_EE.exit"
  call void @_ZNSt6vectorISt8optionalINSt7__cxx1112basic_stringIcSt11char_traitsIcESaIcEEEESaIS7_EED2Ev(ptr noundef nonnull align 8 dereferenceable(24) %7) #27
  call void @llvm.lifetime.end.p0(i64 24, ptr nonnull %7) #28
  br label %"_ZZN8nanobind6detail11func_createILb0ELb1EZL26nanobind_init_test_stl_extRNS_7module_EE4$_84St6vectorISt8optionalINSt7__cxx1112basic_stringIcSt11char_traitsIcESaIcEEEESaISD_EEJRKSF_EJLm0EEJNS_5scopeENS_4nameEEEEP7_objectOT1_PFT2_DpT3_ESt16integer_sequenceImJXspT4_EEEDpRKT5_ENKUlPvPSL_PhNS_9rv_policyEPNS0_12cleanup_listEE_clESZ_S10_S11_S12_S14_.exit"

14:                                               ; preds = %11
  %15 = landingpad { ptr, i32 }
          cleanup
  br label %18

16:                                               ; preds = %"_ZZL26nanobind_init_test_stl_extRN8nanobind7module_EENK4$_84clERKSt6vectorISt8optionalINSt7__cxx1112basic_stringIcSt11char_traitsIcESaIcEEEESaISB_EE.exit"
  %17 = landingpad { ptr, i32 }
          cleanup
  call void @_ZNSt6vectorISt8optionalINSt7__cxx1112basic_stringIcSt11char_traitsIcESaIcEEEESaIS7_EED2Ev(ptr noundef nonnull align 8 dereferenceable(24) %7) #27
  br label %18

18:                                               ; preds = %16, %14
  %.pn.i = phi { ptr, i32 } [ %17, %16 ], [ %15, %14 ]
  call void @llvm.lifetime.end.p0(i64 24, ptr nonnull %7) #28
  call void @_ZNSt6vectorISt8optionalINSt7__cxx1112basic_stringIcSt11char_traitsIcESaIcEEEESaIS7_EED2Ev(ptr noundef nonnull align 8 dereferenceable(24) %6) #27
  call void @llvm.lifetime.end.p0(i64 24, ptr nonnull %6) #28
  resume { ptr, i32 } %.pn.i

"_ZZN8nanobind6detail11func_createILb0ELb1EZL26nanobind_init_test_stl_extRNS_7module_EE4$_84St6vectorISt8optionalINSt7__cxx1112basic_stringIcSt11char_traitsIcESaIcEEEESaISD_EEJRKSF_EJLm0EEJNS_5scopeENS_4nameEEEEP7_objectOT1_PFT2_DpT3_ESt16integer_sequenceImJXspT4_EEEDpRKT5_ENKUlPvPSL_PhNS_9rv_policyEPNS0_12cleanup_listEE_clESZ_S10_S11_S12_S14_.exit": ; preds = %5, %13
  %.0.i = phi ptr [ %12, %13 ], [ inttoptr (i64 1 to ptr), %5 ]
  call void @_ZNSt6vectorISt8optionalINSt7__cxx1112basic_stringIcSt11char_traitsIcESaIcEEEESaIS7_EED2Ev(ptr noundef nonnull align 8 dereferenceable(24) %6) #27
  call void @llvm.lifetime.end.p0(i64 24, ptr nonnull %6) #28
  ret ptr %.0.i
}